
/Users/jacob/Repositories/FastFile/FastFile/Data/EBOOT.elf:     file format elf64-powerpc


Disassembly of section :

000000000010e930 <+0xfe700>:
  10e930:	80 0b 08 1c 	lwz     r0,2076(r11)
  10e934:	78 63 06 20 	clrldi  r3,r3,56
  10e938:	90 0b 03 64 	stw     r0,868(r11)
  10e93c:	4b fe 10 5c 	b       0xef998
  10e940:	f8 21 ff 81 	stdu    r1,-128(r1)
  10e944:	7c 08 02 a6 	mflr    r0
  10e948:	fb e1 00 78 	std     r31,120(r1)
  10e94c:	83 e2 e6 28 	lwz     r31,-6616(r2)
  10e950:	38 a0 01 cc 	li      r5,460
  10e954:	fb c1 00 70 	std     r30,112(r1)
  10e958:	f8 01 00 90 	std     r0,144(r1)
  10e95c:	80 9f 08 18 	lwz     r4,2072(r31)
  10e960:	48 00 f3 a1 	bl      0x11dd00
  10e964:	60 00 00 00 	nop
  10e968:	80 1f 08 18 	lwz     r0,2072(r31)
  10e96c:	38 60 00 00 	li      r3,0
  10e970:	90 1f 08 0c 	stw     r0,2060(r31)
  10e974:	4b ff fb c5 	bl      0x10e538
  10e978:	81 3f 08 18 	lwz     r9,2072(r31)
  10e97c:	38 60 00 00 	li      r3,0
  10e980:	39 29 01 2c 	addi    r9,r9,300
  10e984:	91 3f 06 44 	stw     r9,1604(r31)
  10e988:	4b ff 3f 59 	bl      0x1028e0
  10e98c:	81 3f 08 18 	lwz     r9,2072(r31)
  10e990:	38 60 00 00 	li      r3,0
  10e994:	39 29 01 38 	addi    r9,r9,312
  10e998:	91 3f 07 bc 	stw     r9,1980(r31)
  10e99c:	4b ff db 25 	bl      0x10c4c0
  10e9a0:	81 3f 08 18 	lwz     r9,2072(r31)
  10e9a4:	38 60 00 00 	li      r3,0
  10e9a8:	39 29 01 3c 	addi    r9,r9,316
  10e9ac:	91 3f 07 bc 	stw     r9,1980(r31)
  10e9b0:	4b ff db 11 	bl      0x10c4c0
  10e9b4:	81 3f 08 18 	lwz     r9,2072(r31)
  10e9b8:	38 60 00 00 	li      r3,0
  10e9bc:	39 29 01 40 	addi    r9,r9,320
  10e9c0:	91 3f 07 bc 	stw     r9,1980(r31)
  10e9c4:	4b ff da fd 	bl      0x10c4c0
  10e9c8:	81 3f 08 18 	lwz     r9,2072(r31)
  10e9cc:	38 60 00 00 	li      r3,0
  10e9d0:	39 29 01 44 	addi    r9,r9,324
  10e9d4:	91 3f 07 bc 	stw     r9,1980(r31)
  10e9d8:	4b ff da e9 	bl      0x10c4c0
  10e9dc:	81 3f 08 18 	lwz     r9,2072(r31)
  10e9e0:	38 60 00 00 	li      r3,0
  10e9e4:	39 29 01 48 	addi    r9,r9,328
  10e9e8:	91 3f 07 bc 	stw     r9,1980(r31)
  10e9ec:	4b ff da d5 	bl      0x10c4c0
  10e9f0:	81 3f 08 18 	lwz     r9,2072(r31)
  10e9f4:	38 60 00 00 	li      r3,0
  10e9f8:	39 29 01 4c 	addi    r9,r9,332
  10e9fc:	91 3f 07 bc 	stw     r9,1980(r31)
  10ea00:	4b ff da c1 	bl      0x10c4c0
  10ea04:	81 3f 08 18 	lwz     r9,2072(r31)
  10ea08:	38 60 00 00 	li      r3,0
  10ea0c:	39 29 01 50 	addi    r9,r9,336
  10ea10:	91 3f 07 bc 	stw     r9,1980(r31)
  10ea14:	4b ff da ad 	bl      0x10c4c0
  10ea18:	81 3f 08 18 	lwz     r9,2072(r31)
  10ea1c:	38 60 00 00 	li      r3,0
  10ea20:	39 29 01 54 	addi    r9,r9,340
  10ea24:	91 3f 07 bc 	stw     r9,1980(r31)
  10ea28:	4b ff da 99 	bl      0x10c4c0
  10ea2c:	81 3f 08 18 	lwz     r9,2072(r31)
  10ea30:	38 60 00 00 	li      r3,0
  10ea34:	39 29 01 58 	addi    r9,r9,344
  10ea38:	91 3f 06 44 	stw     r9,1604(r31)
  10ea3c:	4b ff 3e a5 	bl      0x1028e0
  10ea40:	81 3f 08 18 	lwz     r9,2072(r31)
  10ea44:	38 60 00 00 	li      r3,0
  10ea48:	39 29 01 5c 	addi    r9,r9,348
  10ea4c:	91 3f 06 44 	stw     r9,1604(r31)
  10ea50:	4b ff 3e 91 	bl      0x1028e0
  10ea54:	81 3f 08 18 	lwz     r9,2072(r31)
  10ea58:	79 3e 00 20 	clrldi  r30,r9,32
  10ea5c:	80 1e 01 60 	lwz     r0,352(r30)
  10ea60:	2f 80 00 00 	cmpwi   cr7,r0,0
  10ea64:	41 9e 00 24 	beq     cr7,0x10ea88
  10ea68:	4b fe 0c 09 	bl      0xef670
  10ea6c:	90 7e 01 60 	stw     r3,352(r30)
  10ea70:	81 3f 08 18 	lwz     r9,2072(r31)
  10ea74:	38 60 00 01 	li      r3,1
  10ea78:	80 09 01 60 	lwz     r0,352(r9)
  10ea7c:	90 1f 07 d4 	stw     r0,2004(r31)
  10ea80:	4b ff da c1 	bl      0x10c540
  10ea84:	81 3f 08 18 	lwz     r9,2072(r31)
  10ea88:	38 09 01 64 	addi    r0,r9,356
  10ea8c:	38 60 00 00 	li      r3,0
  10ea90:	90 1f 06 44 	stw     r0,1604(r31)
  10ea94:	4b ff 3e 4d 	bl      0x1028e0
  10ea98:	81 3f 08 18 	lwz     r9,2072(r31)
  10ea9c:	38 60 00 00 	li      r3,0
  10eaa0:	39 29 01 6c 	addi    r9,r9,364
  10eaa4:	91 3f 07 7c 	stw     r9,1916(r31)
  10eaa8:	4b ff bf 31 	bl      0x10a9d8
  10eaac:	81 3f 08 18 	lwz     r9,2072(r31)
  10eab0:	38 60 00 00 	li      r3,0
  10eab4:	39 29 01 84 	addi    r9,r9,388
  10eab8:	91 3f 08 1c 	stw     r9,2076(r31)
  10eabc:	4b ff fd 95 	bl      0x10e850
  10eac0:	81 3f 08 18 	lwz     r9,2072(r31)
  10eac4:	79 3e 00 20 	clrldi  r30,r9,32
  10eac8:	80 1e 01 90 	lwz     r0,400(r30)
  10eacc:	2f 80 00 00 	cmpwi   cr7,r0,0
  10ead0:	41 9e 00 2c 	beq     cr7,0x10eafc
  10ead4:	4b fe 0b 0d 	bl      0xef5e0
  10ead8:	90 7e 01 90 	stw     r3,400(r30)
  10eadc:	81 3f 08 18 	lwz     r9,2072(r31)
  10eae0:	38 60 00 01 	li      r3,1
  10eae4:	80 09 01 90 	lwz     r0,400(r9)
  10eae8:	90 1f 07 ac 	stw     r0,1964(r31)
  10eaec:	80 89 01 8c 	lwz     r4,396(r9)
  10eaf0:	7c 84 07 b4 	extsw   r4,r4
  10eaf4:	4b ff d1 e5 	bl      0x10bcd8
  10eaf8:	81 3f 08 18 	lwz     r9,2072(r31)
  10eafc:	38 09 01 94 	addi    r0,r9,404
  10eb00:	38 60 00 00 	li      r3,0
  10eb04:	90 1f 07 a8 	stw     r0,1960(r31)
  10eb08:	4b ff d0 81 	bl      0x10bb88
  10eb0c:	81 3f 08 18 	lwz     r9,2072(r31)
  10eb10:	38 60 00 00 	li      r3,0
  10eb14:	39 29 01 98 	addi    r9,r9,408
  10eb18:	91 3f 07 a8 	stw     r9,1960(r31)
  10eb1c:	4b ff d0 6d 	bl      0x10bb88
  10eb20:	81 3f 08 18 	lwz     r9,2072(r31)
  10eb24:	38 60 00 00 	li      r3,0
  10eb28:	39 29 01 9c 	addi    r9,r9,412
  10eb2c:	91 3f 07 a8 	stw     r9,1960(r31)
  10eb30:	4b ff d0 59 	bl      0x10bb88
  10eb34:	81 3f 08 18 	lwz     r9,2072(r31)
  10eb38:	38 60 00 00 	li      r3,0
  10eb3c:	39 29 01 a0 	addi    r9,r9,416
  10eb40:	91 3f 07 a8 	stw     r9,1960(r31)
  10eb44:	e8 01 00 90 	ld      r0,144(r1)
  10eb48:	eb c1 00 70 	ld      r30,112(r1)
  10eb4c:	eb e1 00 78 	ld      r31,120(r1)
  10eb50:	38 21 00 80 	addi    r1,r1,128
  10eb54:	7c 08 03 a6 	mtlr    r0
  10eb58:	4b ff d0 30 	b       0x10bb88
  10eb5c:	60 00 00 00 	nop
  10eb60:	f8 21 ff 81 	stdu    r1,-128(r1)
  10eb64:	7c 08 02 a6 	mflr    r0
  10eb68:	fb c1 00 70 	std     r30,112(r1)
  10eb6c:	83 c2 e6 28 	lwz     r30,-6616(r2)
  10eb70:	38 a0 00 04 	li      r5,4
  10eb74:	fb e1 00 78 	std     r31,120(r1)
  10eb78:	f8 01 00 90 	std     r0,144(r1)
  10eb7c:	80 9e 08 20 	lwz     r4,2080(r30)
