
/Users/jacob/Repositories/FastFile/FastFile/Data/EBOOT.elf:     file format elf64-powerpc


Disassembly of section :

000000000010c300 <+0xfc0d0>:
  10c300:	3b de 00 01 	addi    r30,r30,1
  10c304:	38 60 00 00 	li      r3,0
  10c308:	93 fc 07 cc 	stw     r31,1996(r28)
  10c30c:	4b ff fe bd 	bl      0x10c1c8
  10c310:	7f 9d f0 00 	cmpw    cr7,r29,r30
  10c314:	3b ff 00 04 	addi    r31,r31,4
  10c318:	40 9e ff e8 	bne     cr7,0x10c300
  10c31c:	e8 01 00 a0 	ld      r0,160(r1)
  10c320:	eb 81 00 70 	ld      r28,112(r1)
  10c324:	eb a1 00 78 	ld      r29,120(r1)
  10c328:	7c 08 03 a6 	mtlr    r0
  10c32c:	eb c1 00 80 	ld      r30,128(r1)
  10c330:	eb e1 00 88 	ld      r31,136(r1)
  10c334:	38 21 00 90 	addi    r1,r1,144
  10c338:	4e 80 00 20 	blr
  10c33c:	60 00 00 00 	nop
  10c340:	f8 21 ff 81 	stdu    r1,-128(r1)
  10c344:	7c 08 02 a6 	mflr    r0
  10c348:	fb c1 00 70 	std     r30,112(r1)
  10c34c:	83 c2 e6 28 	lwz     r30,-6616(r2)
  10c350:	38 a0 00 08 	li      r5,8
  10c354:	fb e1 00 78 	std     r31,120(r1)
  10c358:	f8 01 00 90 	std     r0,144(r1)
  10c35c:	80 9e 07 d0 	lwz     r4,2000(r30)
  10c360:	48 01 19 a1 	bl      0x11dd00
  10c364:	60 00 00 00 	nop
  10c368:	83 fe 07 d0 	lwz     r31,2000(r30)
  10c36c:	80 1f 00 04 	lwz     r0,4(r31)
  10c370:	2f 80 00 00 	cmpwi   cr7,r0,0
  10c374:	41 9e 00 3c 	beq     cr7,0x10c3b0
  10c378:	4b fe 3a 91 	bl      0xefe08
  10c37c:	90 7f 00 04 	stw     r3,4(r31)
  10c380:	81 3e 07 d0 	lwz     r9,2000(r30)
  10c384:	38 60 00 01 	li      r3,1
  10c388:	80 09 00 04 	lwz     r0,4(r9)
  10c38c:	90 1e 07 cc 	stw     r0,1996(r30)
  10c390:	80 89 00 00 	lwz     r4,0(r9)
  10c394:	e8 01 00 90 	ld      r0,144(r1)
  10c398:	eb c1 00 70 	ld      r30,112(r1)
  10c39c:	7c 84 07 b4 	extsw   r4,r4
  10c3a0:	eb e1 00 78 	ld      r31,120(r1)
  10c3a4:	38 21 00 80 	addi    r1,r1,128
  10c3a8:	7c 08 03 a6 	mtlr    r0
  10c3ac:	4b ff ff 0c 	b       0x10c2b8
  10c3b0:	e8 01 00 90 	ld      r0,144(r1)
  10c3b4:	eb c1 00 70 	ld      r30,112(r1)
  10c3b8:	eb e1 00 78 	ld      r31,120(r1)
  10c3bc:	7c 08 03 a6 	mtlr    r0
  10c3c0:	38 21 00 80 	addi    r1,r1,128
  10c3c4:	4e 80 00 20 	blr
  10c3c8:	2f 84 00 00 	cmpwi   cr7,r4,0
  10c3cc:	7c 08 02 a6 	mflr    r0
  10c3d0:	f8 21 ff 71 	stdu    r1,-144(r1)
  10c3d4:	fb a1 00 78 	std     r29,120(r1)
  10c3d8:	fb c1 00 80 	std     r30,128(r1)
  10c3dc:	fb e1 00 88 	std     r31,136(r1)
  10c3e0:	f8 01 00 a0 	std     r0,160(r1)
  10c3e4:	7c 9d 23 78 	mr      r29,r4
  10c3e8:	40 9d 00 30 	ble     cr7,0x10c418
  10c3ec:	83 c2 e6 28 	lwz     r30,-6616(r2)
  10c3f0:	3b e0 00 00 	li      r31,0
  10c3f4:	60 00 00 00 	nop
  10c3f8:	38 60 00 01 	li      r3,1
  10c3fc:	3b ff 00 01 	addi    r31,r31,1
  10c400:	4b ff ff 41 	bl      0x10c340
  10c404:	48 01 17 3d 	bl      0x11db40
  10c408:	60 00 00 00 	nop
  10c40c:	7f 9d f8 00 	cmpw    cr7,r29,r31
  10c410:	90 7e 07 d0 	stw     r3,2000(r30)
  10c414:	40 9e ff e4 	bne     cr7,0x10c3f8
  10c418:	e8 01 00 a0 	ld      r0,160(r1)
  10c41c:	eb a1 00 78 	ld      r29,120(r1)
  10c420:	eb c1 00 80 	ld      r30,128(r1)
  10c424:	7c 08 03 a6 	mtlr    r0
  10c428:	eb e1 00 88 	ld      r31,136(r1)
  10c42c:	38 21 00 90 	addi    r1,r1,144
  10c430:	4e 80 00 20 	blr
  10c434:	60 00 00 00 	nop
  10c438:	f8 21 ff 71 	stdu    r1,-144(r1)
  10c43c:	7c 08 02 a6 	mflr    r0
  10c440:	fb 81 00 70 	std     r28,112(r1)
  10c444:	83 82 e6 28 	lwz     r28,-6616(r2)
  10c448:	54 85 18 38 	slwi    r5,r4,3
  10c44c:	fb a1 00 78 	std     r29,120(r1)
  10c450:	fb e1 00 88 	std     r31,136(r1)
  10c454:	fb c1 00 80 	std     r30,128(r1)
  10c458:	f8 01 00 a0 	std     r0,160(r1)
  10c45c:	7c 9d 23 78 	mr      r29,r4
  10c460:	80 9c 07 d0 	lwz     r4,2000(r28)
  10c464:	7c a5 07 b4 	extsw   r5,r5
  10c468:	48 01 18 99 	bl      0x11dd00
  10c46c:	60 00 00 00 	nop
  10c470:	2f 9d 00 00 	cmpwi   cr7,r29,0
  10c474:	83 fc 07 d0 	lwz     r31,2000(r28)
  10c478:	40 9d 00 24 	ble     cr7,0x10c49c
  10c47c:	3b c0 00 00 	li      r30,0
  10c480:	3b de 00 01 	addi    r30,r30,1
  10c484:	38 60 00 00 	li      r3,0
  10c488:	93 fc 07 d0 	stw     r31,2000(r28)
  10c48c:	4b ff fe b5 	bl      0x10c340
  10c490:	7f 9d f0 00 	cmpw    cr7,r29,r30
  10c494:	3b ff 00 08 	addi    r31,r31,8
  10c498:	40 9e ff e8 	bne     cr7,0x10c480
  10c49c:	e8 01 00 a0 	ld      r0,160(r1)
  10c4a0:	eb 81 00 70 	ld      r28,112(r1)
  10c4a4:	eb a1 00 78 	ld      r29,120(r1)
  10c4a8:	7c 08 03 a6 	mtlr    r0
  10c4ac:	eb c1 00 80 	ld      r30,128(r1)
  10c4b0:	eb e1 00 88 	ld      r31,136(r1)
  10c4b4:	38 21 00 90 	addi    r1,r1,144
  10c4b8:	4e 80 00 20 	blr
  10c4bc:	60 00 00 00 	nop
  10c4c0:	f8 21 ff 81 	stdu    r1,-128(r1)
  10c4c4:	7c 08 02 a6 	mflr    r0
  10c4c8:	fb c1 00 70 	std     r30,112(r1)
  10c4cc:	83 c2 e6 28 	lwz     r30,-6616(r2)
  10c4d0:	38 a0 00 04 	li      r5,4
  10c4d4:	fb e1 00 78 	std     r31,120(r1)
  10c4d8:	f8 01 00 90 	std     r0,144(r1)
  10c4dc:	80 9e 07 bc 	lwz     r4,1980(r30)
  10c4e0:	48 01 18 21 	bl      0x11dd00
  10c4e4:	60 00 00 00 	nop
  10c4e8:	83 fe 07 bc 	lwz     r31,1980(r30)
  10c4ec:	80 1f 00 00 	lwz     r0,0(r31)
  10c4f0:	2f 80 00 00 	cmpwi   cr7,r0,0
  10c4f4:	41 9e 00 34 	beq     cr7,0x10c528
