
FastFile/Data/EBOOT.elf:     file format elf64-powerpc


Disassembly of section :

00000000000e10f8 <+0xd0ec8>:
   e10f8:	f8 21 ff 71 	stdu    r1,-144(r1)
   e10fc:	7c 08 02 a6 	mflr    r0
   e1100:	fb c1 00 80 	std     r30,128(r1)
   e1104:	83 c2 e6 08 	lwz     r30,-6648(r2)
   e1108:	fb a1 00 78 	std     r29,120(r1)
   e110c:	7f dd f3 78 	mr      r29,r30
   e1110:	fb e1 00 88 	std     r31,136(r1)
   e1114:	f8 01 00 a0 	std     r0,160(r1)
   e1118:	90 7e 00 58 	stw     r3,88(r30)
   e111c:	90 9e 00 5c 	stw     r4,92(r30)
   e1120:	80 1e 00 50 	lwz     r0,80(r30)
   e1124:	2f 80 00 00 	cmpwi   cr7,r0,0
   e1128:	7c 1f 03 78 	mr      r31,r0
   e112c:	41 9e 00 78 	beq     cr7,0xe11a4
   e1130:	80 1e 00 5c 	lwz     r0,92(r30)
   e1134:	7f 9f 00 00 	cmpw    cr7,r31,r0
   e1138:	40 9d 00 08 	ble     cr7,0xe1140
   e113c:	7c 1f 03 78 	mr      r31,r0
   e1140:	80 1d 00 58 	lwz     r0,88(r29)
   e1144:	7b e5 00 20 	clrldi  r5,r31,32
   e1148:	2f 80 00 00 	cmpwi   cr7,r0,0
   e114c:	78 03 00 20 	clrldi  r3,r0,32
   e1150:	41 9e 00 1c 	beq     cr7,0xe116c
   e1154:	80 9d 00 4c 	lwz     r4,76(r29)
   e1158:	48 3e 5b 41 	bl      0x4c6c98
   e115c:	e8 41 00 28 	ld      r2,40(r1)
   e1160:	80 1d 00 58 	lwz     r0,88(r29)
   e1164:	7c 00 fa 14 	add     r0,r0,r31
   e1168:	90 1d 00 58 	stw     r0,88(r29)
   e116c:	81 5e 00 5c 	lwz     r10,92(r30)
   e1170:	81 7e 00 50 	lwz     r11,80(r30)
   e1174:	7d 5f 50 50 	subf    r10,r31,r10
   e1178:	80 1e 00 4c 	lwz     r0,76(r30)
   e117c:	81 3e 00 54 	lwz     r9,84(r30)
   e1180:	7d 7f 58 50 	subf    r11,r31,r11
   e1184:	2f 8a 00 00 	cmpwi   cr7,r10,0
   e1188:	7d 29 fa 14 	add     r9,r9,r31
   e118c:	7c 00 fa 14 	add     r0,r0,r31
   e1190:	91 7e 00 50 	stw     r11,80(r30)
   e1194:	90 1e 00 4c 	stw     r0,76(r30)
   e1198:	91 3e 00 54 	stw     r9,84(r30)
   e119c:	91 5e 00 5c 	stw     r10,92(r30)
   e11a0:	41 9e 00 0c 	beq     cr7,0xe11ac
   e11a4:	4b ff fc 4d 	bl      0xe0df0
   e11a8:	4b ff ff 78 	b       0xe1120
   e11ac:	e8 01 00 a0 	ld      r0,160(r1)
   e11b0:	eb a1 00 78 	ld      r29,120(r1)
   e11b4:	eb c1 00 80 	ld      r30,128(r1)
   e11b8:	7c 08 03 a6 	mtlr    r0
   e11bc:	eb e1 00 88 	ld      r31,136(r1)
   e11c0:	38 21 00 90 	addi    r1,r1,144
   e11c4:	4e 80 00 20 	blr
   e11c8:	7d 80 00 26 	mfcr    r12
   e11cc:	f8 21 ff 21 	stdu    r1,-224(r1)
   e11d0:	fb 61 00 b8 	std     r27,184(r1)
   e11d4:	83 62 e6 08 	lwz     r27,-6648(r2)
   e11d8:	2e 03 00 00 	cmpwi   cr4,r3,0
   e11dc:	fa 81 00 80 	std     r20,128(r1)
   e11e0:	fa a1 00 88 	std     r21,136(r1)
   e11e4:	fa c1 00 90 	std     r22,144(r1)
   e11e8:	fb 01 00 a0 	std     r24,160(r1)
   e11ec:	fb 41 00 b0 	std     r26,176(r1)
   e11f0:	fa e1 00 98 	std     r23,152(r1)
   e11f4:	fb 21 00 a8 	std     r25,168(r1)
   e11f8:	fb 81 00 c0 	std     r28,192(r1)
   e11fc:	fb a1 00 c8 	std     r29,200(r1)
   e1200:	fb c1 00 d0 	std     r30,208(r1)
   e1204:	fb e1 00 d8 	std     r31,216(r1)
   e1208:	7c 78 1b 78 	mr      r24,r3
   e120c:	7c b5 2b 78 	mr      r21,r5
   e1210:	7c 9a 23 78 	mr      r26,r4
   e1214:	7f 74 db 78 	mr      r20,r27
   e1218:	3a db 01 00 	addi    r22,r27,256
   e121c:	91 81 00 e8 	stw     r12,232(r1)
   e1220:	7c 08 02 a6 	mflr    r0
   e1224:	f8 01 00 f0 	std     r0,240(r1)
   e1228:	80 1b 00 88 	lwz     r0,136(r27)
   e122c:	2f 80 00 00 	cmpwi   cr7,r0,0
   e1230:	41 9e 00 d8 	beq     cr7,0xe1308
   e1234:	7f 9a 00 00 	cmpw    cr7,r26,r0
   e1238:	7f 5c d3 78 	mr      r28,r26
   e123c:	40 9d 00 08 	ble     cr7,0xe1244
   e1240:	7c 1c 03 78 	mr      r28,r0
   e1244:	41 92 01 c8 	beq     cr4,0xe140c
   e1248:	2f 95 00 00 	cmpwi   cr7,r21,0
   e124c:	41 9e 01 a8 	beq     cr7,0xe13f4
   e1250:	38 1c ff ff 	addi    r0,r28,-1
   e1254:	7c 1d 86 70 	srawi   r29,r0,16
   e1258:	38 7d 00 01 	addi    r3,r29,1
   e125c:	78 63 00 20 	clrldi  r3,r3,32
   e1260:	48 23 0e 59 	bl      0x3120b8
   e1264:	60 00 00 00 	nop
   e1268:	2f 9d 00 00 	cmpwi   cr7,r29,0
   e126c:	41 9e 00 44 	beq     cr7,0xe12b0
   e1270:	7f 1f c3 78 	mr      r31,r24
   e1274:	3b c0 00 00 	li      r30,0
   e1278:	7b e3 00 20 	clrldi  r3,r31,32
   e127c:	80 9b 00 8c 	lwz     r4,140(r27)
   e1280:	3c a0 00 01 	lis     r5,1
   e1284:	3b de 00 01 	addi    r30,r30,1
   e1288:	48 23 0e e1 	bl      0x312168
   e128c:	60 00 00 00 	nop
   e1290:	81 3b 00 8c 	lwz     r9,140(r27)
   e1294:	7f 9d f0 00 	cmpw    cr7,r29,r30
   e1298:	3d 29 00 01 	addis   r9,r9,1
   e129c:	3f ff 00 01 	addis   r31,r31,1
   e12a0:	91 3b 00 8c 	stw     r9,140(r27)
   e12a4:	40 9e ff d4 	bne     cr7,0xe1278
   e12a8:	57 a0 80 1e 	slwi    r0,r29,16
   e12ac:	7f 18 02 14 	add     r24,r24,r0
   e12b0:	7c 1c 00 d0 	neg     r0,r28
   e12b4:	80 9b 00 8c 	lwz     r4,140(r27)
   e12b8:	3f a0 00 01 	lis     r29,1
   e12bc:	54 00 04 3e 	clrlwi  r0,r0,16
   e12c0:	7b 03 00 20 	clrldi  r3,r24,32
   e12c4:	7f a0 e8 50 	subf    r29,r0,r29
   e12c8:	7f 5c d0 50 	subf    r26,r28,r26
   e12cc:	7b a5 00 20 	clrldi  r5,r29,32
   e12d0:	7f 18 ea 14 	add     r24,r24,r29
   e12d4:	48 23 0e 95 	bl      0x312168
   e12d8:	60 00 00 00 	nop
   e12dc:	80 1b 00 8c 	lwz     r0,140(r27)
   e12e0:	7f bd 02 14 	add     r29,r29,r0
   e12e4:	93 bb 00 8c 	stw     r29,140(r27)
   e12e8:	48 23 0e 41 	bl      0x312128
   e12ec:	60 00 00 00 	nop
   e12f0:	80 1b 00 88 	lwz     r0,136(r27)
   e12f4:	2f 9a 00 00 	cmpwi   cr7,r26,0
   e12f8:	7c 1c 00 50 	subf    r0,r28,r0
   e12fc:	90 1b 00 88 	stw     r0,136(r27)
   e1300:	41 9e 01 30 	beq     cr7,0xe1430
   e1304:	2e 18 00 00 	cmpwi   cr4,r24,0
   e1308:	41 92 01 70 	beq     cr4,0xe1478
   e130c:	3a e1 00 70 	addi    r23,r1,112
   e1310:	7f 5f d3 78 	mr      r31,r26
   e1314:	3b 80 00 00 	li      r28,0
   e1318:	7e de b3 78 	mr      r30,r22
   e131c:	3f 20 00 01 	lis     r25,1
   e1320:	57 9d 08 3c 	slwi    r29,r28,1
   e1324:	38 80 00 02 	li      r4,2
   e1328:	7f bd ba 14 	add     r29,r29,r23
   e132c:	7b bd 00 20 	clrldi  r29,r29,32
   e1330:	7f a3 eb 78 	mr      r3,r29
   e1334:	4b ff fd c5 	bl      0xe10f8
   e1338:	7b c3 00 20 	clrldi  r3,r30,32
   e133c:	a0 1d 00 00 	lhz     r0,0(r29)
   e1340:	3c 80 00 01 	lis     r4,1
   e1344:	2f 80 00 00 	cmpwi   cr7,r0,0
   e1348:	41 9e 00 0c 	beq     cr7,0xe1354
   e134c:	7c 04 07 b4 	extsw   r4,r0
   e1350:	7b c3 00 20 	clrldi  r3,r30,32
   e1354:	4b ff fd a5 	bl      0xe10f8
   e1358:	7f 9f c8 40 	cmplw   cr7,r31,r25
   e135c:	2f 1c 00 03 	cmpwi   cr6,r28,3
   e1360:	3f de 00 01 	addis   r30,r30,1
   e1364:	3f ff ff ff 	addis   r31,r31,-1
   e1368:	40 9d 01 6c 	ble     cr7,0xe14d4
   e136c:	3b 9c 00 01 	addi    r28,r28,1
   e1370:	40 9a ff b0 	bne     cr6,0xe1320
   e1374:	7b 83 00 20 	clrldi  r3,r28,32
   e1378:	48 23 0d 41 	bl      0x3120b8
   e137c:	60 00 00 00 	nop
   e1380:	7e fd bb 78 	mr      r29,r23
   e1384:	3b c0 00 00 	li      r30,0
   e1388:	7e df b3 78 	mr      r31,r22
   e138c:	60 00 00 00 	nop
   e1390:	7b a9 00 20 	clrldi  r9,r29,32
   e1394:	3c 60 00 01 	lis     r3,1
   e1398:	3c 80 00 01 	lis     r4,1
   e139c:	7b e5 00 20 	clrldi  r5,r31,32
   e13a0:	38 c0 00 00 	li      r6,0
   e13a4:	a0 09 00 00 	lhz     r0,0(r9)
   e13a8:	2f 80 00 00 	cmpwi   cr7,r0,0
   e13ac:	41 9e 00 14 	beq     cr7,0xe13c0
   e13b0:	78 03 04 20 	clrldi  r3,r0,48
   e13b4:	7b e5 00 20 	clrldi  r5,r31,32
   e13b8:	3c 80 00 01 	lis     r4,1
   e13bc:	38 c0 00 01 	li      r6,1
   e13c0:	3b de 00 01 	addi    r30,r30,1
   e13c4:	48 23 0d ed 	bl      0x3121b0
   e13c8:	60 00 00 00 	nop
   e13cc:	7f 9c f0 00 	cmpw    cr7,r28,r30
   e13d0:	3b bd 00 02 	addi    r29,r29,2
   e13d4:	3f ff 00 01 	addis   r31,r31,1
   e13d8:	40 9e ff b8 	bne     cr7,0xe1390
   e13dc:	48 23 0d 4d 	bl      0x312128
   e13e0:	60 00 00 00 	nop
   e13e4:	57 80 80 1e 	slwi    r0,r28,16
   e13e8:	92 db 00 8c 	stw     r22,140(r27)
   e13ec:	90 1b 00 88 	stw     r0,136(r27)
   e13f0:	4b ff fe 38 	b       0xe1228
   e13f4:	7b 03 00 20 	clrldi  r3,r24,32
   e13f8:	80 94 00 8c 	lwz     r4,140(r20)
   e13fc:	7b 85 00 20 	clrldi  r5,r28,32
   e1400:	7f 18 e2 14 	add     r24,r24,r28
   e1404:	48 3e 58 95 	bl      0x4c6c98
   e1408:	e8 41 00 28 	ld      r2,40(r1)
   e140c:	80 1b 00 8c 	lwz     r0,140(r27)
   e1410:	7f 5c d0 50 	subf    r26,r28,r26
   e1414:	7c 1c 02 14 	add     r0,r28,r0
   e1418:	2f 9a 00 00 	cmpwi   cr7,r26,0
   e141c:	90 1b 00 8c 	stw     r0,140(r27)
   e1420:	80 1b 00 88 	lwz     r0,136(r27)
   e1424:	7c 1c 00 50 	subf    r0,r28,r0
   e1428:	90 1b 00 88 	stw     r0,136(r27)
   e142c:	40 9e fe d8 	bne     cr7,0xe1304
   e1430:	e8 01 00 f0 	ld      r0,240(r1)
   e1434:	81 81 00 e8 	lwz     r12,232(r1)
   e1438:	ea 81 00 80 	ld      r20,128(r1)
   e143c:	7c 08 03 a6 	mtlr    r0
   e1440:	ea a1 00 88 	ld      r21,136(r1)
   e1444:	7d 90 81 20 	mtocrf  8,r12
   e1448:	ea c1 00 90 	ld      r22,144(r1)
   e144c:	ea e1 00 98 	ld      r23,152(r1)
   e1450:	eb 01 00 a0 	ld      r24,160(r1)
   e1454:	eb 21 00 a8 	ld      r25,168(r1)
   e1458:	eb 41 00 b0 	ld      r26,176(r1)
   e145c:	eb 61 00 b8 	ld      r27,184(r1)
   e1460:	eb 81 00 c0 	ld      r28,192(r1)
   e1464:	eb a1 00 c8 	ld      r29,200(r1)
   e1468:	eb c1 00 d0 	ld      r30,208(r1)
   e146c:	eb e1 00 d8 	ld      r31,216(r1)
   e1470:	38 21 00 e0 	addi    r1,r1,224
   e1474:	4e 80 00 20 	blr
   e1478:	38 00 00 00 	li      r0,0
   e147c:	3a e1 00 70 	addi    r23,r1,112
   e1480:	60 00 ff ff 	ori     r0,r0,65535
   e1484:	7f 9a 00 00 	cmpw    cr7,r26,r0
   e1488:	40 9d fe 88 	ble     cr7,0xe1310
   e148c:	7c 1e 03 78 	mr      r30,r0
   e1490:	7e ff bb 78 	mr      r31,r23
   e1494:	60 00 00 00 	nop
   e1498:	7f e3 fb 78 	mr      r3,r31
   e149c:	38 80 00 02 	li      r4,2
   e14a0:	4b ff fc 59 	bl      0xe10f8
   e14a4:	a0 01 00 70 	lhz     r0,112(r1)
   e14a8:	38 60 00 00 	li      r3,0
   e14ac:	2f 80 00 00 	cmpwi   cr7,r0,0
   e14b0:	3c 80 00 01 	lis     r4,1
   e14b4:	41 9e 00 0c 	beq     cr7,0xe14c0
   e14b8:	7c 04 07 b4 	extsw   r4,r0
   e14bc:	38 60 00 00 	li      r3,0
   e14c0:	3f 5a ff ff 	addis   r26,r26,-1
   e14c4:	4b ff fc 35 	bl      0xe10f8
   e14c8:	7f 9a f0 00 	cmpw    cr7,r26,r30
   e14cc:	41 9d ff cc 	bgt     cr7,0xe1498
   e14d0:	4b ff fe 40 	b       0xe1310
   e14d4:	3b 9c 00 01 	addi    r28,r28,1
   e14d8:	7b 83 00 20 	clrldi  r3,r28,32
   e14dc:	48 23 0b dd 	bl      0x3120b8
   e14e0:	60 00 00 00 	nop
   e14e4:	2f 9c 00 00 	cmpwi   cr7,r28,0
   e14e8:	40 9e fe 98 	bne     cr7,0xe1380
   e14ec:	48 23 0c 3d 	bl      0x312128
   e14f0:	60 00 00 00 	nop
   e14f4:	57 80 80 1e 	slwi    r0,r28,16
   e14f8:	92 db 00 8c 	stw     r22,140(r27)
   e14fc:	90 1b 00 88 	stw     r0,136(r27)
   e1500:	4b ff fd 28 	b       0xe1228
   e1504:	60 00 00 00 	nop
   e1508:	f8 21 ff 61 	stdu    r1,-160(r1)
   e150c:	7c 08 02 a6 	mflr    r0
   e1510:	80 62 e6 08 	lwz     r3,-6648(r2)
   e1514:	39 60 00 00 	li      r11,0
   e1518:	f8 01 00 b0 	std     r0,176(r1)
   e151c:	38 00 00 02 	li      r0,2
   e1520:	39 20 02 00 	li      r9,512
   e1524:	90 01 00 70 	stw     r0,112(r1)
   e1528:	3c 63 00 04 	addis   r3,r3,4
   e152c:	38 00 00 00 	li      r0,0
   e1530:	38 c0 ff ff 	li      r6,-1
   e1534:	91 61 00 80 	stw     r11,128(r1)
   e1538:	f9 61 00 78 	std     r11,120(r1)
   e153c:	fb e1 00 98 	std     r31,152(r1)
   e1540:	91 21 00 74 	stw     r9,116(r1)
   e1544:	98 01 00 88 	stb     r0,136(r1)
   e1548:	38 63 01 00 	addi    r3,r3,256
   e154c:	78 c6 00 60 	clrldi  r6,r6,33
   e1550:	38 81 00 70 	addi    r4,r1,112
   e1554:	38 a0 00 00 	li      r5,0
   e1558:	39 60 00 5a 	li      r11,90
   e155c:	44 00 00 02 	sc
   e1560:	48 19 93 b1 	bl      0x27a910
   e1564:	60 00 00 00 	nop
   e1568:	78 7f 00 20 	clrldi  r31,r3,32
   e156c:	48 00 00 0c 	b       0xe1578
   e1570:	48 11 95 b1 	bl      0x1fab20
   e1574:	60 00 00 00 	nop
   e1578:	7f e3 fb 78 	mr      r3,r31
   e157c:	48 42 ea 09 	bl      0x50ff84
   e1580:	e8 41 00 28 	ld      r2,40(r1)
   e1584:	2f 83 00 00 	cmpwi   cr7,r3,0
   e1588:	38 60 00 64 	li      r3,100
   e158c:	40 9e ff e4 	bne     cr7,0xe1570
   e1590:	48 1f eb 61 	bl      0x2e00f0
   e1594:	60 00 00 00 	nop
   e1598:	78 7f 00 20 	clrldi  r31,r3,32
   e159c:	48 00 00 0c 	b       0xe15a8
   e15a0:	48 11 95 81 	bl      0x1fab20
   e15a4:	60 00 00 00 	nop
   e15a8:	7f e3 fb 78 	mr      r3,r31
   e15ac:	48 42 e9 d9 	bl      0x50ff84
   e15b0:	e8 41 00 28 	ld      r2,40(r1)
   e15b4:	2f 83 00 00 	cmpwi   cr7,r3,0
   e15b8:	38 60 00 64 	li      r3,100
   e15bc:	40 9e ff e4 	bne     cr7,0xe15a0
   e15c0:	e8 01 00 b0 	ld      r0,176(r1)
   e15c4:	eb e1 00 98 	ld      r31,152(r1)
   e15c8:	38 21 00 a0 	addi    r1,r1,160
   e15cc:	7c 08 03 a6 	mtlr    r0
   e15d0:	4e 80 00 20 	blr
   e15d4:	60 00 00 00 	nop
   e15d8:	f8 21 ff 71 	stdu    r1,-144(r1)
   e15dc:	7c 08 02 a6 	mflr    r0
   e15e0:	fb c1 00 80 	std     r30,128(r1)
   e15e4:	83 c2 e6 08 	lwz     r30,-6648(r2)
   e15e8:	fb a1 00 78 	std     r29,120(r1)
   e15ec:	7f dd f3 78 	mr      r29,r30
   e15f0:	fb e1 00 88 	std     r31,136(r1)
   e15f4:	f8 01 00 a0 	std     r0,160(r1)
   e15f8:	90 7e 00 58 	stw     r3,88(r30)
   e15fc:	90 9e 00 5c 	stw     r4,92(r30)
   e1600:	80 1e 00 50 	lwz     r0,80(r30)
   e1604:	2f 80 00 00 	cmpwi   cr7,r0,0
   e1608:	7c 1f 03 78 	mr      r31,r0
   e160c:	41 9e 00 6c 	beq     cr7,0xe1678
   e1610:	80 1e 00 5c 	lwz     r0,92(r30)
   e1614:	7f 9f 00 00 	cmpw    cr7,r31,r0
   e1618:	40 9d 00 08 	ble     cr7,0xe1620
   e161c:	7c 1f 03 78 	mr      r31,r0
   e1620:	80 1d 00 58 	lwz     r0,88(r29)
   e1624:	7b e5 00 20 	clrldi  r5,r31,32
   e1628:	2f 80 00 00 	cmpwi   cr7,r0,0
   e162c:	78 03 00 20 	clrldi  r3,r0,32
   e1630:	41 9e 00 1c 	beq     cr7,0xe164c
   e1634:	80 9d 00 4c 	lwz     r4,76(r29)
   e1638:	48 3e 56 61 	bl      0x4c6c98
   e163c:	e8 41 00 28 	ld      r2,40(r1)
   e1640:	80 1d 00 58 	lwz     r0,88(r29)
   e1644:	7c 00 fa 14 	add     r0,r0,r31
   e1648:	90 1d 00 58 	stw     r0,88(r29)
   e164c:	81 3e 00 5c 	lwz     r9,92(r30)
   e1650:	81 7e 00 4c 	lwz     r11,76(r30)
   e1654:	7d 3f 48 50 	subf    r9,r31,r9
   e1658:	80 1e 00 50 	lwz     r0,80(r30)
   e165c:	7d 6b fa 14 	add     r11,r11,r31
   e1660:	2f 89 00 00 	cmpwi   cr7,r9,0
   e1664:	7c 1f 00 50 	subf    r0,r31,r0
   e1668:	91 7e 00 4c 	stw     r11,76(r30)
   e166c:	90 1e 00 50 	stw     r0,80(r30)
   e1670:	91 3e 00 5c 	stw     r9,92(r30)
   e1674:	41 9e 00 0c 	beq     cr7,0xe1680
   e1678:	4b ff f7 79 	bl      0xe0df0
   e167c:	4b ff ff 84 	b       0xe1600
   e1680:	39 2b 01 ff 	addi    r9,r11,511
   e1684:	e8 01 00 a0 	ld      r0,160(r1)
   e1688:	eb a1 00 78 	ld      r29,120(r1)
   e168c:	79 29 00 20 	clrldi  r9,r9,32
   e1690:	eb c1 00 80 	ld      r30,128(r1)
   e1694:	eb e1 00 88 	ld      r31,136(r1)
   e1698:	7c 08 03 a6 	mtlr    r0
   e169c:	38 21 00 90 	addi    r1,r1,144
   e16a0:	7c 00 4a 2c 	dcbtct  0,r9
   e16a4:	4e 80 00 20 	blr
